target datalayout = "e-m:e-p270:32:32-p271:32:32-p272:64:64-i64:64-i128:128-f80:128-n8:16:32:64-S128"
target triple = "x86_64-pc-linux-gnu"

%struct.darktable_t = type { %struct.dt_codepath_t, i32, i32, ptr, ptr, ptr, ptr, ptr, ptr, ptr, ptr, ptr, ptr, ptr, ptr, ptr, ptr, ptr, ptr, ptr, ptr, ptr, ptr, ptr, ptr, ptr, ptr, ptr, ptr, ptr, [64 x %struct.dt_pthread_mutex_t], %struct.dt_pthread_mutex_t, %struct.dt_pthread_mutex_t, %struct.dt_pthread_mutex_t, %struct.dt_pthread_mutex_t, %struct.dt_pthread_mutex_t, ptr, ptr, ptr, ptr, ptr, ptr, ptr, ptr, ptr, ptr, ptr, ptr, ptr, %struct.dt_lua_state_t, ptr, double, ptr, i32, [47 x i32], i32, i32, ptr, ptr, %struct.dt_sys_resources_t, %struct.dt_backthumb_t, %struct.dt_gimp_t }
%struct.dt_codepath_t = type { i8, [3 x i8] }
%struct.dt_pthread_mutex_t = type { %union.pthread_mutex_t }
%union.pthread_mutex_t = type { %struct.__pthread_mutex_s }
%struct.__pthread_mutex_s = type { i32, i32, i32, i32, i32, i16, i16, %struct.__pthread_internal_list }
%struct.__pthread_internal_list = type { ptr, ptr }
%struct.dt_lua_state_t = type { i32 }
%struct.dt_sys_resources_t = type { i64, i64, ptr, ptr, i32 }
%struct.dt_backthumb_t = type { double, double, i32, i32, i32, i32 }
%struct.dt_gimp_t = type { i32, ptr, ptr, i32, i32 }
%struct.dt_action_t = type { i32, ptr, ptr, ptr, ptr, ptr }
%struct._GList = type { ptr, ptr, ptr }
%struct.dt_lib_t = type { ptr, ptr, %struct.anon.19 }
%struct.anon.19 = type { %struct.anon.20, %struct.anon.21, %struct.anon.22, %struct.anon.23 }
%struct.anon.20 = type { ptr, ptr, ptr, ptr, ptr, i32, i32, i32, ptr, ptr, ptr, ptr, ptr }
%struct.anon.21 = type { ptr, ptr, i32 }
%struct.anon.22 = type { ptr }
%struct.anon.23 = type { i32 }
%struct.dt_lib_module_t = type { %struct.dt_action_t, ptr, ptr, ptr, ptr, ptr, ptr, ptr, ptr, ptr, ptr, ptr, ptr, ptr, ptr, ptr, ptr, ptr, ptr, ptr, ptr, ptr, ptr, ptr, ptr, ptr, ptr, ptr, ptr, ptr, ptr, [128 x i8], ptr, ptr, i32, ptr, ptr, ptr, i32 }

@darktable = external global %struct.darktable_t, align 8
@.str.168 = private unnamed_addr constant [9 x i8] c"activate\00", align 1
@.str.188 = private unnamed_addr constant [8 x i8] c"toggled\00", align 1
@.str.256 = private unnamed_addr constant [17 x i8] c"restore defaults\00", align 1
@.str.257 = private unnamed_addr constant [72 x i8] c"restore the default visibility and position of all modules in this view\00", align 1

; Function Attrs: nounwind uwtable
define internal void @_add_remove_modules(ptr noundef %0) #0 {
  %2 = alloca ptr, align 8
  %3 = alloca i32, align 4
  %4 = alloca ptr, align 8
  %5 = alloca ptr, align 8
  %6 = alloca ptr, align 8
  %7 = alloca i32, align 4
  %8 = alloca ptr, align 8
  %9 = alloca i32, align 4
  store ptr %0, ptr %2, align 8, !tbaa !131
  call void @llvm.lifetime.start.p0(i64 4, ptr %3) #15
  %10 = call i32 @dt_view_get_current()
  store i32 %10, ptr %3, align 4, !tbaa !17
  call void @llvm.lifetime.start.p0(i64 8, ptr %4) #15
  %11 = call ptr @gtk_menu_new()
  store ptr %11, ptr %4, align 8, !tbaa !6
  %12 = load ptr, ptr %4, align 8, !tbaa !6
  %13 = call i64 @gtk_menu_shell_get_type() #16
  %14 = call ptr @g_type_check_instance_cast(ptr noundef %12, i64 noundef %13)
  %15 = call ptr @gtk_separator_menu_item_new()
  call void @gtk_menu_shell_append(ptr noundef %14, ptr noundef %15)
  call void @llvm.lifetime.start.p0(i64 8, ptr %5) #15
  %16 = call ptr @dcgettext(ptr noundef null, ptr noundef @.str.256, i32 noundef 5) #15
  %17 = call ptr @gtk_menu_item_new_with_label(ptr noundef %16)
  store ptr %17, ptr %5, align 8, !tbaa !6
  %18 = load ptr, ptr %5, align 8, !tbaa !6
  %19 = call ptr @dcgettext(ptr noundef null, ptr noundef @.str.257, i32 noundef 5) #15
  call void @gtk_widget_set_tooltip_text(ptr noundef %18, ptr noundef %19)
  %20 = load ptr, ptr %5, align 8, !tbaa !6
  %21 = call i64 @g_signal_connect_data(ptr noundef %20, ptr noundef @.str.168, ptr noundef @_restore_default_modules, ptr noundef null, ptr noundef null, i32 noundef 0)
  %22 = load ptr, ptr %4, align 8, !tbaa !6
  %23 = call i64 @gtk_menu_shell_get_type() #16
  %24 = call ptr @g_type_check_instance_cast(ptr noundef %22, i64 noundef %23)
  %25 = load ptr, ptr %5, align 8, !tbaa !6
  call void @gtk_menu_shell_append(ptr noundef %24, ptr noundef %25)
  call void @llvm.lifetime.start.p0(i64 8, ptr %6) #15
  %26 = load ptr, ptr getelementptr inbounds nuw (%struct.darktable_t, ptr @darktable, i32 0, i32 10), align 8, !tbaa !344
  %27 = getelementptr inbounds nuw %struct.dt_lib_t, ptr %26, i32 0, i32 0
  %28 = load ptr, ptr %27, align 8, !tbaa !384
  store ptr %28, ptr %6, align 8, !tbaa !138
  br label %29

29:                                               ; preds = %92, %1
  %30 = load ptr, ptr %6, align 8, !tbaa !138
  %31 = icmp ne ptr %30, null
  br i1 %31, label %33, label %32

32:                                               ; preds = %29
  store i32 2, ptr %7, align 4
  call void @llvm.lifetime.end.p0(i64 8, ptr %6) #15
  br label %96

33:                                               ; preds = %29
  call void @llvm.lifetime.start.p0(i64 8, ptr %8) #15
  %34 = load ptr, ptr %6, align 8, !tbaa !138
  %35 = getelementptr inbounds nuw %struct._GList, ptr %34, i32 0, i32 0
  %36 = load ptr, ptr %35, align 8, !tbaa !139
  store ptr %36, ptr %8, align 8, !tbaa !385
  %37 = load ptr, ptr %8, align 8, !tbaa !385
  %38 = getelementptr inbounds nuw %struct.dt_lib_module_t, ptr %37, i32 0, i32 2
  %39 = load ptr, ptr %38, align 8, !tbaa !386
  %40 = icmp ne ptr %39, null
  br i1 %40, label %42, label %41

41:                                               ; preds = %33
  store i32 4, ptr %7, align 4
  br label %89

42:                                               ; preds = %33
  call void @llvm.lifetime.start.p0(i64 4, ptr %9) #15
  %43 = load ptr, ptr %8, align 8, !tbaa !385
  %44 = getelementptr inbounds nuw %struct.dt_lib_module_t, ptr %43, i32 0, i32 3
  %45 = load ptr, ptr %44, align 8, !tbaa !387
  %46 = load ptr, ptr %8, align 8, !tbaa !385
  %47 = call i32 %45(ptr noundef %46)
  store i32 %47, ptr %9, align 4, !tbaa !17
  %48 = load i32, ptr %9, align 4, !tbaa !17
  %49 = load i32, ptr %3, align 4, !tbaa !17
  %50 = and i32 %48, %49
  %51 = icmp ne i32 %50, 0
  br i1 %51, label %62, label %52

52:                                               ; preds = %42
  %53 = load i32, ptr %9, align 4, !tbaa !17
  %54 = load i32, ptr %9, align 4, !tbaa !17
  %55 = sub nsw i32 %54, 1
  %56 = and i32 %53, %55
  %57 = icmp ne i32 %56, 0
  br i1 %57, label %62, label %58

58:                                               ; preds = %52
  %59 = load i32, ptr %9, align 4, !tbaa !17
  %60 = and i32 %59, 268435456
  %61 = icmp ne i32 %60, 0
  br i1 %61, label %62, label %88

62:                                               ; preds = %58, %52, %42
  %63 = load ptr, ptr %8, align 8, !tbaa !385
  %64 = getelementptr inbounds nuw %struct.dt_lib_module_t, ptr %63, i32 0, i32 5
  %65 = load ptr, ptr %64, align 8, !tbaa !388
  %66 = load ptr, ptr %8, align 8, !tbaa !385
  %67 = call i32 %65(ptr noundef %66)
  %68 = icmp ne i32 %67, 0
  br i1 %68, label %69, label %88

69:                                               ; preds = %62
  %70 = load ptr, ptr %8, align 8, !tbaa !385
  %71 = getelementptr inbounds nuw %struct.dt_lib_module_t, ptr %70, i32 0, i32 2
  %72 = load ptr, ptr %71, align 8, !tbaa !386
  %73 = load ptr, ptr %8, align 8, !tbaa !385
  %74 = call ptr %72(ptr noundef %73)
  %75 = call ptr @gtk_check_menu_item_new_with_label(ptr noundef %74)
  store ptr %75, ptr %5, align 8, !tbaa !6
  %76 = load ptr, ptr %5, align 8, !tbaa !6
  %77 = call i64 @gtk_check_menu_item_get_type() #16
  %78 = call ptr @g_type_check_instance_cast(ptr noundef %76, i64 noundef %77)
  %79 = load ptr, ptr %8, align 8, !tbaa !385
  %80 = call i32 @dt_lib_is_visible(ptr noundef %79)
  call void @gtk_check_menu_item_set_active(ptr noundef %78, i32 noundef %80)
  %81 = load ptr, ptr %5, align 8, !tbaa !6
  %82 = load ptr, ptr %8, align 8, !tbaa !385
  %83 = call i64 @g_signal_connect_data(ptr noundef %81, ptr noundef @.str.188, ptr noundef @_toggle_module_visibility, ptr noundef %82, ptr noundef null, i32 noundef 0)
  %84 = load ptr, ptr %4, align 8, !tbaa !6
  %85 = call i64 @gtk_menu_shell_get_type() #16
  %86 = call ptr @g_type_check_instance_cast(ptr noundef %84, i64 noundef %85)
  %87 = load ptr, ptr %5, align 8, !tbaa !6
  call void @gtk_menu_shell_prepend(ptr noundef %86, ptr noundef %87)
  br label %88

88:                                               ; preds = %69, %62, %58
  call void @llvm.lifetime.end.p0(i64 4, ptr %9) #15
  store i32 0, ptr %7, align 4
  br label %89

89:                                               ; preds = %88, %41
  call void @llvm.lifetime.end.p0(i64 8, ptr %8) #15
  %90 = load i32, ptr %7, align 4
  switch i32 %90, label %101 [
    i32 0, label %91
    i32 4, label %92
  ]

91:                                               ; preds = %89
  br label %92

92:                                               ; preds = %91, %89
  %93 = load ptr, ptr %6, align 8, !tbaa !138
  %94 = getelementptr inbounds nuw %struct._GList, ptr %93, i32 0, i32 1
  %95 = load ptr, ptr %94, align 8, !tbaa !142
  store ptr %95, ptr %6, align 8, !tbaa !138
  br label %29

96:                                               ; preds = %32
  %97 = load ptr, ptr %4, align 8, !tbaa !6
  call void @gtk_widget_show_all(ptr noundef %97)
  %98 = load ptr, ptr %4, align 8, !tbaa !6
  %99 = call i64 @gtk_menu_get_type() #16
  %100 = call ptr @g_type_check_instance_cast(ptr noundef %98, i64 noundef %99)
  call void @dt_gui_menu_popup(ptr noundef %100, ptr noundef null, i32 noundef 0, i32 noundef 0)
  call void @llvm.lifetime.end.p0(i64 8, ptr %5) #15
  call void @llvm.lifetime.end.p0(i64 8, ptr %4) #15
  call void @llvm.lifetime.end.p0(i64 4, ptr %3) #15
  ret void

101:                                              ; preds = %89
  unreachable
}