; Function Attrs: nounwind uwtable
define internal void @_add_remove_modules(ptr readnone captures(none) %0) #0 {
  %2 = tail call i32 @dt_view_get_current() #18
  %3 = tail call ptr @gtk_menu_new() #18
  %4 = tail call i64 @gtk_menu_shell_get_type() #19
  %5 = tail call ptr @g_type_check_instance_cast(ptr noundef %3, i64 noundef %4) #18
  %6 = tail call ptr @gtk_separator_menu_item_new() #18
  tail call void @gtk_menu_shell_append(ptr noundef %5, ptr noundef %6) #18
  %7 = tail call ptr @dcgettext(ptr noundef null, ptr noundef nonnull @.str.256, i32 noundef 5) #18
  %8 = tail call ptr @gtk_menu_item_new_with_label(ptr noundef %7) #18
  %9 = tail call ptr @dcgettext(ptr noundef null, ptr noundef nonnull @.str.257, i32 noundef 5) #18
  tail call void @gtk_widget_set_tooltip_text(ptr noundef %8, ptr noundef %9) #18
  %10 = tail call i64 @g_signal_connect_data(ptr noundef %8, ptr noundef nonnull @.str.168, ptr noundef nonnull @_restore_default_modules, ptr noundef null, ptr noundef null, i32 noundef 0) #18
  %11 = tail call ptr @g_type_check_instance_cast(ptr noundef %3, i64 noundef %4) #18
  tail call void @gtk_menu_shell_append(ptr noundef %11, ptr noundef %8) #18
  %12 = load ptr, ptr getelementptr inbounds nuw (i8, ptr @darktable, i64 72), align 8, !tbaa !262
  %.033 = load ptr, ptr %12, align 8, !tbaa !287
  %.not34 = icmp eq ptr %.033, null
  br i1 %.not34, label %._crit_edge, label %.lr.ph

.lr.ph:                                           ; preds = %1
  %13 = or i32 %2, 268435456
  br label %16

._crit_edge:                                      ; preds = %40, %1
  tail call void @gtk_widget_show_all(ptr noundef %3) #18
  %14 = tail call i64 @gtk_menu_get_type() #19
  %15 = tail call ptr @g_type_check_instance_cast(ptr noundef %3, i64 noundef %14) #18
  tail call void @dt_gui_menu_popup(ptr noundef %15, ptr noundef null, i32 noundef 0, i32 noundef 0)
  ret void

16:                                               ; preds = %.lr.ph, %40
  %.035 = phi ptr [ %.033, %.lr.ph ], [ %.0, %40 ]
  %17 = load ptr, ptr %.035, align 8, !tbaa !129
  %18 = getelementptr inbounds nuw i8, ptr %17, i64 56
  %19 = load ptr, ptr %18, align 8, !tbaa !288
  %.not27 = icmp eq ptr %19, null
  br i1 %.not27, label %40, label %20

20:                                               ; preds = %16
  %21 = getelementptr inbounds nuw i8, ptr %17, i64 64
  %22 = load ptr, ptr %21, align 8, !tbaa !289
  %23 = tail call i32 %22(ptr noundef nonnull %17) #18
  %24 = tail call range(i32 0, 33) i32 @llvm.ctpop.i32(i32 %23)
  %.not29 = icmp samesign ult i32 %24, 2
  %25 = and i32 %23, %13
  %26 = icmp eq i32 %25, 0
  %or.cond32 = select i1 %26, i1 %.not29, i1 false
  br i1 %or.cond32, label %40, label %27

27:                                               ; preds = %20
  %28 = getelementptr inbounds nuw i8, ptr %17, i64 80
  %29 = load ptr, ptr %28, align 8, !tbaa !290
  %30 = tail call i32 %29(ptr noundef nonnull %17) #18
  %.not31 = icmp eq i32 %30, 0
  br i1 %.not31, label %40, label %31

31:                                               ; preds = %27
  %32 = load ptr, ptr %18, align 8, !tbaa !288
  %33 = tail call ptr %32(ptr noundef nonnull %17) #18
  %34 = tail call ptr @gtk_check_menu_item_new_with_label(ptr noundef %33) #18
  %35 = tail call i64 @gtk_check_menu_item_get_type() #19
  %36 = tail call ptr @g_type_check_instance_cast(ptr noundef %34, i64 noundef %35) #18
  %37 = tail call i32 @dt_lib_is_visible(ptr noundef nonnull %17) #18
  tail call void @gtk_check_menu_item_set_active(ptr noundef %36, i32 noundef %37) #18
  %38 = tail call i64 @g_signal_connect_data(ptr noundef %34, ptr noundef nonnull @.str.188, ptr noundef nonnull @_toggle_module_visibility, ptr noundef nonnull %17, ptr noundef null, i32 noundef 0) #18
  %39 = tail call ptr @g_type_check_instance_cast(ptr noundef %3, i64 noundef %4) #18
  tail call void @gtk_menu_shell_prepend(ptr noundef %39, ptr noundef %34) #18
  br label %40

40:                                               ; preds = %27, %31, %20, %16
  %41 = getelementptr inbounds nuw i8, ptr %.035, i64 8
  %.0 = load ptr, ptr %41, align 8, !tbaa !287
  %.not = icmp eq ptr %.0, null
  br i1 %.not, label %._crit_edge, label %16
}